target datalayout = "e-m:e-p270:32:32-p271:32:32-p272:64:64-i64:64-i128:128-f80:128-n8:16:32:64-S128"
target triple = "x86_64-pc-linux-gnu"

%struct._object = type { %union.anon, ptr }
%union.anon = type { i64 }
%struct.PyVarObject = type { %struct._object, i64 }
%struct.array_state = type { ptr, ptr, ptr, ptr, ptr, ptr, ptr }
%struct.arraydescr = type { i8, i32, ptr, ptr, ptr, ptr, i32, i32 }
%struct.anon = type { i32, i32 }
%struct.PyModuleObject = type { %struct._object, ptr, ptr, ptr, ptr, ptr }
%struct.arrayobject = type { %struct.PyVarObject, ptr, i64, ptr, ptr, i64 }

@_Py_NoneStruct = external global %struct._object, align 8

; Function Attrs: alwaysinline nounwind uwtable
define internal i32 @_Py_IsImmortal(ptr noundef %0) #4 {
  %2 = alloca ptr, align 8
  store ptr %0, ptr %2, align 8, !tbaa !3
  %3 = load ptr, ptr %2, align 8, !tbaa !3
  %4 = getelementptr inbounds nuw %struct._object, ptr %3, i32 0, i32 0
  %5 = getelementptr inbounds nuw %struct.anon, ptr %4, i32 0, i32 0
  %6 = load i32, ptr %5, align 8, !tbaa !36
  %7 = icmp slt i32 %6, 0
  %8 = zext i1 %7 to i32
  ret i32 %8
}

; Function Attrs: inlinehint nounwind uwtable
define internal ptr @_PyModule_GetState(ptr noundef %0) #3 {
  %2 = alloca ptr, align 8
  store ptr %0, ptr %2, align 8, !tbaa !3
  %3 = load ptr, ptr %2, align 8, !tbaa !3
  %4 = getelementptr inbounds nuw %struct.PyModuleObject, ptr %3, i32 0, i32 3
  %5 = load ptr, ptr %4, align 8, !tbaa !65
  ret ptr %5
}

; Function Attrs: alwaysinline nounwind uwtable
define internal void @Py_DECREF(ptr noundef %0) #4 {
  %2 = alloca ptr, align 8
  store ptr %0, ptr %2, align 8, !tbaa !3
  %3 = load ptr, ptr %2, align 8, !tbaa !3
  %4 = call i32 @_Py_IsImmortal(ptr noundef %3)
  %5 = icmp ne i32 %4, 0
  br i1 %5, label %6, label %7

6:                                                ; preds = %1
  br label %16

7:                                                ; preds = %1
  %8 = load ptr, ptr %2, align 8, !tbaa !3
  %9 = getelementptr inbounds nuw %struct._object, ptr %8, i32 0, i32 0
  %10 = getelementptr inbounds nuw %struct.anon, ptr %9, i32 0, i32 0
  %11 = load i32, ptr %10, align 8, !tbaa !36
  %12 = add i32 %11, -1
  store i32 %12, ptr %10, align 8, !tbaa !36
  %13 = icmp eq i32 %12, 0
  br i1 %13, label %14, label %16

14:                                               ; preds = %7
  %15 = load ptr, ptr %2, align 8, !tbaa !3
  call void @_Py_Dealloc(ptr noundef %15)
  br label %16

16:                                               ; preds = %6, %14, %7
  ret void
}

; Function Attrs: inlinehint nounwind uwtable
define internal ptr @PyObject_CallMethodOneArg(ptr noundef %0, ptr noundef %1, ptr noundef %2) #3 {
  %4 = alloca ptr, align 8
  %5 = alloca ptr, align 8
  %6 = alloca ptr, align 8
  %7 = alloca [2 x ptr], align 16
  %8 = alloca i64, align 8
  store ptr %0, ptr %4, align 8, !tbaa !3
  store ptr %1, ptr %5, align 8, !tbaa !3
  store ptr %2, ptr %6, align 8, !tbaa !3
  call void @llvm.lifetime.start.p0(i64 16, ptr %7) #8
  %9 = load ptr, ptr %4, align 8, !tbaa !3
  store ptr %9, ptr %7, align 8, !tbaa !3
  %10 = getelementptr inbounds ptr, ptr %7, i64 1
  %11 = load ptr, ptr %6, align 8, !tbaa !3
  store ptr %11, ptr %10, align 8, !tbaa !3
  call void @llvm.lifetime.start.p0(i64 8, ptr %8) #8
  store i64 -9223372036854775806, ptr %8, align 8, !tbaa !21
  %12 = load ptr, ptr %5, align 8, !tbaa !3
  %13 = getelementptr inbounds [2 x ptr], ptr %7, i64 0, i64 0
  %14 = load i64, ptr %8, align 8, !tbaa !21
  %15 = call ptr @PyObject_VectorcallMethod(ptr noundef %12, ptr noundef %13, i64 noundef %14, ptr noundef null)
  call void @llvm.lifetime.end.p0(i64 8, ptr %8) #8
  call void @llvm.lifetime.end.p0(i64 16, ptr %7) #8
  ret ptr %15
}

; Function Attrs: nounwind uwtable
define internal ptr @get_array_state(ptr noundef %0) #0 {
  %2 = alloca ptr, align 8
  store ptr %0, ptr %2, align 8, !tbaa !3
  %3 = load ptr, ptr %2, align 8, !tbaa !3
  %4 = call ptr @_PyModule_GetState(ptr noundef %3)
  ret ptr %4
}

; Function Attrs: inlinehint nounwind uwtable
define internal i64 @Py_SIZE(ptr noundef %0) #3 {
  %2 = alloca ptr, align 8
  store ptr %0, ptr %2, align 8, !tbaa !3
  %3 = load ptr, ptr %2, align 8, !tbaa !3
  %4 = getelementptr inbounds nuw %struct.PyVarObject, ptr %3, i32 0, i32 1
  %5 = load i64, ptr %4, align 8, !tbaa !62
  ret i64 %5
}

; Function Attrs: nounwind uwtable
define internal ptr @array_array_tofile_impl(ptr noundef %0, ptr noundef %1, ptr noundef %2) #0 {
  %4 = alloca ptr, align 8
  %5 = alloca ptr, align 8
  %6 = alloca ptr, align 8
  %7 = alloca ptr, align 8
  %8 = alloca i64, align 8
  %9 = alloca i32, align 4
  %10 = alloca i64, align 8
  %11 = alloca i64, align 8
  %12 = alloca ptr, align 8
  %13 = alloca ptr, align 8
  %14 = alloca i64, align 8
  %15 = alloca ptr, align 8
  %16 = alloca ptr, align 8
  %17 = alloca i32, align 4
  store ptr %0, ptr %5, align 8, !tbaa !68
  store ptr %1, ptr %6, align 8, !tbaa !18
  store ptr %2, ptr %7, align 8, !tbaa !3
  call void @llvm.lifetime.start.p0(i64 8, ptr %8) #8
  %18 = load ptr, ptr %5, align 8, !tbaa !68
  %19 = call i64 @Py_SIZE(ptr noundef %18)
  %20 = load ptr, ptr %5, align 8, !tbaa !68
  %21 = getelementptr inbounds nuw %struct.arrayobject, ptr %20, i32 0, i32 3
  %22 = load ptr, ptr %21, align 8, !tbaa !99
  %23 = getelementptr inbounds nuw %struct.arraydescr, ptr %22, i32 0, i32 1
  %24 = load i32, ptr %23, align 4, !tbaa !52
  %25 = sext i32 %24 to i64
  %26 = mul i64 %19, %25
  store i64 %26, ptr %8, align 8, !tbaa !21
  call void @llvm.lifetime.start.p0(i64 4, ptr %9) #8
  store i32 65536, ptr %9, align 4, !tbaa !12
  call void @llvm.lifetime.start.p0(i64 8, ptr %10) #8
  %27 = load i64, ptr %8, align 8, !tbaa !21
  %28 = load i32, ptr %9, align 4, !tbaa !12
  %29 = sext i32 %28 to i64
  %30 = add i64 %27, %29
  %31 = sub i64 %30, 1
  %32 = load i32, ptr %9, align 4, !tbaa !12
  %33 = sext i32 %32 to i64
  %34 = sdiv i64 %31, %33
  store i64 %34, ptr %10, align 8, !tbaa !21
  call void @llvm.lifetime.start.p0(i64 8, ptr %11) #8
  %35 = load ptr, ptr %5, align 8, !tbaa !68
  %36 = call i64 @Py_SIZE(ptr noundef %35)
  %37 = icmp eq i64 %36, 0
  br i1 %37, label %38, label %39

38:                                               ; preds = %3
  br label %100

39:                                               ; preds = %3
  %40 = load ptr, ptr %6, align 8, !tbaa !18
  %41 = call ptr @PyType_GetModule(ptr noundef %40)
  %42 = call ptr @get_array_state(ptr noundef %41)
  store ptr %42, ptr %12, align 8, !tbaa !8
  store i64 0, ptr %11, align 8, !tbaa !21
  br label %43

43:                                               ; preds = %96, %39
  %44 = load i64, ptr %11, align 8, !tbaa !21
  %45 = load i64, ptr %10, align 8, !tbaa !21
  %46 = icmp slt i64 %44, %45
  br i1 %46, label %47, label %99

47:                                               ; preds = %43
  call void @llvm.lifetime.start.p0(i64 8, ptr %13) #8
  %48 = load ptr, ptr %5, align 8, !tbaa !68
  %49 = getelementptr inbounds nuw %struct.arrayobject, ptr %48, i32 0, i32 1
  %50 = load ptr, ptr %49, align 8, !tbaa !70
  %51 = load i64, ptr %11, align 8, !tbaa !21
  %52 = load i32, ptr %9, align 4, !tbaa !12
  %53 = sext i32 %52 to i64
  %54 = mul i64 %51, %53
  %55 = getelementptr i8, ptr %50, i64 %54
  store ptr %55, ptr %13, align 8, !tbaa !47
  call void @llvm.lifetime.start.p0(i64 8, ptr %14) #8
  %56 = load i32, ptr %9, align 4, !tbaa !12
  %57 = sext i32 %56 to i64
  store i64 %57, ptr %14, align 8, !tbaa !21
  call void @llvm.lifetime.start.p0(i64 8, ptr %15) #8
  call void @llvm.lifetime.start.p0(i64 8, ptr %16) #8
  %58 = load i64, ptr %11, align 8, !tbaa !21
  %59 = load i32, ptr %9, align 4, !tbaa !12
  %60 = sext i32 %59 to i64
  %61 = mul i64 %58, %60
  %62 = load i64, ptr %14, align 8, !tbaa !21
  %63 = add i64 %61, %62
  %64 = load i64, ptr %8, align 8, !tbaa !21
  %65 = icmp sgt i64 %63, %64
  br i1 %65, label %66, label %73

66:                                               ; preds = %47
  %67 = load i64, ptr %8, align 8, !tbaa !21
  %68 = load i64, ptr %11, align 8, !tbaa !21
  %69 = load i32, ptr %9, align 4, !tbaa !12
  %70 = sext i32 %69 to i64
  %71 = mul i64 %68, %70
  %72 = sub i64 %67, %71
  store i64 %72, ptr %14, align 8, !tbaa !21
  br label %73

73:                                               ; preds = %66, %47
  %74 = load ptr, ptr %13, align 8, !tbaa !47
  %75 = load i64, ptr %14, align 8, !tbaa !21
  %76 = call ptr @PyBytes_FromStringAndSize(ptr noundef %74, i64 noundef %75)
  store ptr %76, ptr %15, align 8, !tbaa !3
  %77 = load ptr, ptr %15, align 8, !tbaa !3
  %78 = icmp eq ptr %77, null
  br i1 %78, label %79, label %80

79:                                               ; preds = %73
  store ptr null, ptr %4, align 8
  store i32 1, ptr %17, align 4
  br label %93

80:                                               ; preds = %73
  %81 = load ptr, ptr %7, align 8, !tbaa !3
  %82 = load ptr, ptr %12, align 8, !tbaa !8
  %83 = getelementptr inbounds nuw %struct.array_state, ptr %82, i32 0, i32 4
  %84 = load ptr, ptr %83, align 8, !tbaa !114
  %85 = load ptr, ptr %15, align 8, !tbaa !3
  %86 = call ptr @PyObject_CallMethodOneArg(ptr noundef %81, ptr noundef %84, ptr noundef %85)
  store ptr %86, ptr %16, align 8, !tbaa !3
  %87 = load ptr, ptr %15, align 8, !tbaa !3
  call void @Py_DECREF(ptr noundef %87)
  %88 = load ptr, ptr %16, align 8, !tbaa !3
  %89 = icmp eq ptr %88, null
  br i1 %89, label %90, label %91

90:                                               ; preds = %80
  store ptr null, ptr %4, align 8
  store i32 1, ptr %17, align 4
  br label %93

91:                                               ; preds = %80
  %92 = load ptr, ptr %16, align 8, !tbaa !3
  call void @Py_DECREF(ptr noundef %92)
  store i32 0, ptr %17, align 4
  br label %93

93:                                               ; preds = %91, %90, %79
  call void @llvm.lifetime.end.p0(i64 8, ptr %16) #8
  call void @llvm.lifetime.end.p0(i64 8, ptr %15) #8
  call void @llvm.lifetime.end.p0(i64 8, ptr %14) #8
  call void @llvm.lifetime.end.p0(i64 8, ptr %13) #8
  %94 = load i32, ptr %17, align 4
  switch i32 %94, label %101 [
    i32 0, label %95
  ]

95:                                               ; preds = %93
  br label %96

96:                                               ; preds = %95
  %97 = load i64, ptr %11, align 8, !tbaa !21
  %98 = add i64 %97, 1
  store i64 %98, ptr %11, align 8, !tbaa !21
  br label %43, !llvm.loop !147

99:                                               ; preds = %43
  br label %100

100:                                              ; preds = %99, %38
  store ptr @_Py_NoneStruct, ptr %4, align 8
  store i32 1, ptr %17, align 4
  br label %101

101:                                              ; preds = %100, %93
  call void @llvm.lifetime.end.p0(i64 8, ptr %11) #8
  call void @llvm.lifetime.end.p0(i64 8, ptr %10) #8
  call void @llvm.lifetime.end.p0(i64 4, ptr %9) #8
  call void @llvm.lifetime.end.p0(i64 8, ptr %8) #8
  %102 = load ptr, ptr %4, align 8
  ret ptr %102
}

; Function Attrs: nounwind uwtable
define internal ptr @array_array_tofile(ptr noundef %0, ptr noundef %1, ptr noundef %2, i64 noundef %3, ptr noundef %4) #0 {
  %6 = alloca ptr, align 8
  %7 = alloca ptr, align 8
  %8 = alloca ptr, align 8
  %9 = alloca i64, align 8
  %10 = alloca ptr, align 8
  %11 = alloca ptr, align 8
  %12 = alloca [1 x ptr], align 8
  %13 = alloca ptr, align 8
  store ptr %0, ptr %6, align 8, !tbaa !3
  store ptr %1, ptr %7, align 8, !tbaa !18
  store ptr %2, ptr %8, align 8, !tbaa !19
  store i64 %3, ptr %9, align 8, !tbaa !21
  store ptr %4, ptr %10, align 8, !tbaa !3
  call void @llvm.lifetime.start.p0(i64 8, ptr %11) #8
  store ptr null, ptr %11, align 8, !tbaa !3
  call void @llvm.lifetime.start.p0(i64 8, ptr %12) #8
  call void @llvm.lifetime.start.p0(i64 8, ptr %13) #8
  %14 = load ptr, ptr %10, align 8, !tbaa !3
  %15 = icmp eq ptr %14, null
  br i1 %15, label %16, label %27

16:                                               ; preds = %5
  %17 = load i64, ptr %9, align 8, !tbaa !21
  %18 = icmp sle i64 1, %17
  br i1 %18, label %19, label %27

19:                                               ; preds = %16
  %20 = load i64, ptr %9, align 8, !tbaa !21
  %21 = icmp sle i64 %20, 1
  br i1 %21, label %22, label %27

22:                                               ; preds = %19
  %23 = load ptr, ptr %8, align 8, !tbaa !19
  %24 = icmp ne ptr %23, null
  br i1 %24, label %25, label %27

25:                                               ; preds = %22
  %26 = load ptr, ptr %8, align 8, !tbaa !19
  br label %33

27:                                               ; preds = %22, %19, %16, %5
  %28 = load ptr, ptr %8, align 8, !tbaa !19
  %29 = load i64, ptr %9, align 8, !tbaa !21
  %30 = load ptr, ptr %10, align 8, !tbaa !3
  %31 = getelementptr inbounds [1 x ptr], ptr %12, i64 0, i64 0
  %32 = call ptr @_PyArg_UnpackKeywords(ptr noundef %28, i64 noundef %29, ptr noundef null, ptr noundef %30, ptr noundef @array_array_tofile._parser, i32 noundef 1, i32 noundef 1, i32 noundef 0, i32 noundef 0, ptr noundef %31)
  br label %33

33:                                               ; preds = %27, %25
  %34 = phi ptr [ %26, %25 ], [ %32, %27 ]
  store ptr %34, ptr %8, align 8, !tbaa !19
  %35 = load ptr, ptr %8, align 8, !tbaa !19
  %36 = icmp ne ptr %35, null
  br i1 %36, label %38, label %37

37:                                               ; preds = %33
  br label %46

38:                                               ; preds = %33
  %39 = load ptr, ptr %8, align 8, !tbaa !19
  %40 = getelementptr ptr, ptr %39, i64 0
  %41 = load ptr, ptr %40, align 8, !tbaa !3
  store ptr %41, ptr %13, align 8, !tbaa !3
  %42 = load ptr, ptr %6, align 8, !tbaa !3
  %43 = load ptr, ptr %7, align 8, !tbaa !18
  %44 = load ptr, ptr %13, align 8, !tbaa !3
  %45 = call ptr @array_array_tofile_impl(ptr noundef %42, ptr noundef %43, ptr noundef %44)
  store ptr %45, ptr %11, align 8, !tbaa !3
  br label %46

46:                                               ; preds = %38, %37
  %47 = load ptr, ptr %11, align 8, !tbaa !3
  call void @llvm.lifetime.end.p0(i64 8, ptr %13) #8
  call void @llvm.lifetime.end.p0(i64 8, ptr %12) #8
  call void @llvm.lifetime.end.p0(i64 8, ptr %11) #8
  ret ptr %47
}