; Function Attrs: nounwind uwtable
define internal noundef ptr @array_array_tofile(ptr noundef readonly captures(none) %0, ptr noundef %1, ptr noundef %2, i64 noundef %3, ptr noundef %4) #0 {
  %6 = alloca [2 x ptr], align 16
  %7 = alloca [1 x ptr], align 8
  call void @llvm.lifetime.start.p0(i64 8, ptr nonnull %7) #11
  %8 = icmp eq ptr %4, null
  %9 = icmp eq i64 %3, 1
  %or.cond3 = and i1 %9, %8
  %10 = icmp ne ptr %2, null
  %or.cond5 = and i1 %10, %or.cond3
  br i1 %or.cond5, label %.thread, label %11

11:                                               ; preds = %5
  %12 = call ptr @_PyArg_UnpackKeywords(ptr noundef %2, i64 noundef %3, ptr noundef null, ptr noundef %4, ptr noundef nonnull @array_array_tofile._parser, i32 noundef 1, i32 noundef 1, i32 noundef 0, i32 noundef 0, ptr noundef nonnull %7) #11
  %.not = icmp eq ptr %12, null
  br i1 %.not, label %array_array_tofile_impl.exit, label %.thread

.thread:                                          ; preds = %5, %11
  %13 = phi ptr [ %12, %11 ], [ %2, %5 ]
  %14 = load ptr, ptr %13, align 8, !tbaa !18
  %15 = getelementptr i8, ptr %0, i64 16
  %.val41.i = load i64, ptr %15, align 8, !tbaa !40
  %16 = getelementptr inbounds nuw i8, ptr %0, i64 40
  %17 = load ptr, ptr %16, align 8, !tbaa !76
  %18 = getelementptr inbounds nuw i8, ptr %17, i64 4
  %19 = load i32, ptr %18, align 4, !tbaa !49
  %20 = sext i32 %19 to i64
  %21 = mul i64 %.val41.i, %20
  %22 = add i64 %21, 65535
  %23 = sdiv i64 %22, 65536
  %24 = icmp eq i64 %.val41.i, 0
  br i1 %24, label %array_array_tofile_impl.exit, label %25

25:                                               ; preds = %.thread
  %26 = call ptr @PyType_GetModule(ptr noundef %1) #11
  %27 = getelementptr inbounds nuw i8, ptr %0, i64 24
  %28 = icmp sgt i64 %22, 65535
  br i1 %28, label %.lr.ph.i, label %array_array_tofile_impl.exit

.lr.ph.i:                                         ; preds = %25
  %29 = getelementptr i8, ptr %26, i64 32
  %.val.i = load ptr, ptr %29, align 8, !tbaa !3
  %30 = getelementptr inbounds nuw i8, ptr %.val.i, i64 32
  %31 = getelementptr inbounds nuw i8, ptr %6, i64 8
  br label %32

32:                                               ; preds = %Py_DECREF.exit.i, %.lr.ph.i
  %.03242.i = phi i64 [ 0, %.lr.ph.i ], [ %55, %Py_DECREF.exit.i ]
  %33 = load ptr, ptr %27, align 8, !tbaa !53
  %34 = shl i64 %.03242.i, 16
  %35 = getelementptr i8, ptr %33, i64 %34
  %36 = add nuw nsw i64 %34, 65536
  %37 = icmp sgt i64 %36, %21
  %38 = sub i64 %21, %34
  %spec.select.i = select i1 %37, i64 %38, i64 65536
  %39 = call ptr @PyBytes_FromStringAndSize(ptr noundef %35, i64 noundef %spec.select.i) #11
  %40 = icmp eq ptr %39, null
  br i1 %40, label %array_array_tofile_impl.exit, label %41

41:                                               ; preds = %32
  %42 = load ptr, ptr %30, align 8, !tbaa !92
  call void @llvm.lifetime.start.p0(i64 16, ptr nonnull %6) #11
  store ptr %14, ptr %6, align 16, !tbaa !18
  store ptr %39, ptr %31, align 8, !tbaa !18
  %43 = call ptr @PyObject_VectorcallMethod(ptr noundef %42, ptr noundef nonnull %6, i64 noundef -9223372036854775806, ptr noundef null) #11
  call void @llvm.lifetime.end.p0(i64 16, ptr nonnull %6) #11
  %44 = load i32, ptr %39, align 8, !tbaa !17
  %.not.i37.i = icmp sgt i32 %44, -1
  br i1 %.not.i37.i, label %45, label %Py_DECREF.exit38.i

45:                                               ; preds = %41
  %46 = add nsw i32 %44, -1
  store i32 %46, ptr %39, align 8, !tbaa !17
  %47 = icmp eq i32 %46, 0
  br i1 %47, label %48, label %Py_DECREF.exit38.i

48:                                               ; preds = %45
  call void @_Py_Dealloc(ptr noundef nonnull %39) #11
  br label %Py_DECREF.exit38.i

Py_DECREF.exit38.i:                               ; preds = %48, %45, %41
  %49 = icmp eq ptr %43, null
  br i1 %49, label %array_array_tofile_impl.exit, label %.critedge.i

.critedge.i:                                      ; preds = %Py_DECREF.exit38.i
  %50 = load i32, ptr %43, align 8, !tbaa !17
  %.not.i.i = icmp sgt i32 %50, -1
  br i1 %.not.i.i, label %51, label %Py_DECREF.exit.i

51:                                               ; preds = %.critedge.i
  %52 = add nsw i32 %50, -1
  store i32 %52, ptr %43, align 8, !tbaa !17
  %53 = icmp eq i32 %52, 0
  br i1 %53, label %54, label %Py_DECREF.exit.i

54:                                               ; preds = %51
  call void @_Py_Dealloc(ptr noundef nonnull %43) #11
  br label %Py_DECREF.exit.i

Py_DECREF.exit.i:                                 ; preds = %54, %51, %.critedge.i
  %55 = add nuw nsw i64 %.03242.i, 1
  %exitcond.not.i = icmp eq i64 %55, %23
  br i1 %exitcond.not.i, label %array_array_tofile_impl.exit, label %32, !llvm.loop !126

array_array_tofile_impl.exit:                     ; preds = %Py_DECREF.exit.i, %Py_DECREF.exit38.i, %32, %25, %.thread, %11
  %.0 = phi ptr [ null, %11 ], [ @_Py_NoneStruct, %.thread ], [ @_Py_NoneStruct, %25 ], [ @_Py_NoneStruct, %Py_DECREF.exit.i ], [ null, %32 ], [ null, %Py_DECREF.exit38.i ]
  call void @llvm.lifetime.end.p0(i64 8, ptr nonnull %7) #11
  ret ptr %.0
}